; Function Attrs: mustprogress nofree norecurse nosync nounwind willreturn memory(argmem: readwrite) uwtable
define dso_local void @_ZN3net18SourceAddressToken12InternalSwapEPS0_(ptr nocapture noundef nonnull align 8 dereferenceable(56) %this, ptr nocapture noundef %other) local_unnamed_addr #11 align 2 {
entry:
  %ip_ = getelementptr inbounds i8, ptr %this, i64 32
  %ip_2 = getelementptr inbounds i8, ptr %other, i64 32
  %0 = load ptr, ptr %ip_, align 8
  %1 = load ptr, ptr %ip_2, align 8
  store ptr %1, ptr %ip_, align 8
  store ptr %0, ptr %ip_2, align 8
  %timestamp_ = getelementptr inbounds i8, ptr %this, i64 40
  %timestamp_3 = getelementptr inbounds i8, ptr %other, i64 40
  %2 = load i64, ptr %timestamp_, align 8
  %3 = load i64, ptr %timestamp_3, align 8
  store i64 %3, ptr %timestamp_, align 8
  store i64 %2, ptr %timestamp_3, align 8
  %cached_network_parameters_ = getelementptr inbounds i8, ptr %this, i64 48
  %cached_network_parameters_4 = getelementptr inbounds i8, ptr %other, i64 48
  %4 = load ptr, ptr %cached_network_parameters_, align 8
  %5 = load ptr, ptr %cached_network_parameters_4, align 8
  store ptr %5, ptr %cached_network_parameters_, align 8
  store ptr %4, ptr %cached_network_parameters_4, align 8
  %_has_bits_ = getelementptr inbounds i8, ptr %this, i64 24
  %_has_bits_5 = getelementptr inbounds i8, ptr %other, i64 24
  %6 = load i32, ptr %_has_bits_, align 8
  %7 = load i32, ptr %_has_bits_5, align 4
  store i32 %7, ptr %_has_bits_, align 8
  store i32 %6, ptr %_has_bits_5, align 4
  %_unknown_fields_ = getelementptr inbounds i8, ptr %this, i64 8
  %_unknown_fields_7 = getelementptr inbounds i8, ptr %other, i64 8
  %8 = load ptr, ptr %_unknown_fields_, align 8
  %9 = load ptr, ptr %_unknown_fields_7, align 8
  store ptr %9, ptr %_unknown_fields_, align 8
  store ptr %8, ptr %_unknown_fields_7, align 8
  %_cached_size_ = getelementptr inbounds i8, ptr %this, i64 28
  %_cached_size_8 = getelementptr inbounds i8, ptr %other, i64 28
  %10 = load i32, ptr %_cached_size_, align 4
  %11 = load i32, ptr %_cached_size_8, align 4
  store i32 %11, ptr %_cached_size_, align 4
  store i32 %10, ptr %_cached_size_8, align 4
  ret void
}